target datalayout = "e-m:e-p270:32:32-p271:32:32-p272:64:64-i64:64-i128:128-f80:128-n8:16:32:64-S128"
target triple = "x86_64-pc-linux-gnu"

%struct._object = type { %union.anon, ptr }
%union.anon = type { i64 }
%struct.anon.0 = type { i32, i32 }

@.str.183 = private unnamed_addr constant [33 x i8] c"../cpython/Programs/_testembed.c\00", align 1
@.str.310 = private unnamed_addr constant [15 x i8] c"_testembed.set\00", align 1
@.str.318 = private unnamed_addr constant [28 x i8] c"ERROR test failed at %s:%i\0A\00", align 1
@.str.319 = private unnamed_addr constant [4 x i8] c"(i)\00", align 1
@PyExc_TypeError = external global ptr, align 8
@.str.320 = private unnamed_addr constant [28 x i8] c"_testembed.test_audit_tuple\00", align 1

; Function Attrs: alwaysinline nounwind uwtable
define internal i32 @_Py_IsImmortal(ptr noundef %0) #9 {
  %2 = alloca ptr, align 8
  store ptr %0, ptr %2, align 8, !tbaa !80
  %3 = load ptr, ptr %2, align 8, !tbaa !80
  %4 = getelementptr inbounds nuw %struct._object, ptr %3, i32 0, i32 0
  %5 = getelementptr inbounds nuw %struct.anon.0, ptr %4, i32 0, i32 0
  %6 = load i32, ptr %5, align 8, !tbaa !100
  %7 = icmp slt i32 %6, 0
  %8 = zext i1 %7 to i32
  ret i32 %8
}

; Function Attrs: alwaysinline nounwind uwtable
define internal void @Py_DECREF(ptr noundef %0) #9 {
  %2 = alloca ptr, align 8
  store ptr %0, ptr %2, align 8, !tbaa !80
  %3 = load ptr, ptr %2, align 8, !tbaa !80
  %4 = call i32 @_Py_IsImmortal(ptr noundef %3)
  %5 = icmp ne i32 %4, 0
  br i1 %5, label %6, label %7

6:                                                ; preds = %1
  br label %16

7:                                                ; preds = %1
  %8 = load ptr, ptr %2, align 8, !tbaa !80
  %9 = getelementptr inbounds nuw %struct._object, ptr %8, i32 0, i32 0
  %10 = getelementptr inbounds nuw %struct.anon.0, ptr %9, i32 0, i32 0
  %11 = load i32, ptr %10, align 8, !tbaa !100
  %12 = add i32 %11, -1
  store i32 %12, ptr %10, align 8, !tbaa !100
  %13 = icmp eq i32 %12, 0
  br i1 %13, label %14, label %16

14:                                               ; preds = %7
  %15 = load ptr, ptr %2, align 8, !tbaa !80
  call void @_Py_Dealloc(ptr noundef %15)
  br label %16

16:                                               ; preds = %6, %14, %7
  ret void
}

; Function Attrs: nounwind uwtable
define internal i32 @test_audit_tuple() #0 {
  %1 = alloca i32, align 4
  %2 = alloca i64, align 8
  %3 = alloca i32, align 4
  %4 = alloca ptr, align 8
  %5 = alloca ptr, align 8
  call void @llvm.lifetime.start.p0(i64 8, ptr %2) #11
  store i64 0, ptr %2, align 8, !tbaa !37
  %6 = call i32 @PySys_AddAuditHook(ptr noundef @_audit_hook, ptr noundef %2)
  call void @_testembed_Py_InitializeFromConfig()
  %7 = call ptr @PyErr_Occurred()
  %8 = icmp ne ptr %7, null
  br i1 %8, label %9, label %11

9:                                                ; preds = %0
  %10 = call i32 (ptr, ...) @printf(ptr noundef @.str.318, ptr noundef @.str.183, i32 noundef 1374)
  store i32 0, ptr %1, align 4
  store i32 1, ptr %3, align 4
  br label %64

11:                                               ; preds = %0
  call void @llvm.lifetime.start.p0(i64 8, ptr %4) #11
  %12 = call ptr (ptr, ...) @Py_BuildValue(ptr noundef @.str.319, i32 noundef 444)
  store ptr %12, ptr %4, align 8, !tbaa !80
  %13 = load ptr, ptr %4, align 8, !tbaa !80
  %14 = icmp eq ptr %13, null
  br i1 %14, label %15, label %16

15:                                               ; preds = %11
  br label %62

16:                                               ; preds = %11
  %17 = load ptr, ptr %4, align 8, !tbaa !80
  %18 = call i32 @PySys_AuditTuple(ptr noundef @.str.310, ptr noundef %17)
  %19 = icmp eq i32 %18, 0
  br i1 %19, label %22, label %20

20:                                               ; preds = %16
  %21 = call i32 (ptr, ...) @printf(ptr noundef @.str.318, ptr noundef @.str.183, i32 noundef 1381)
  store i32 10, ptr %1, align 4
  store i32 1, ptr %3, align 4
  br label %63

22:                                               ; preds = %16
  %23 = call ptr @PyErr_Occurred()
  %24 = icmp ne ptr %23, null
  br i1 %24, label %25, label %27

25:                                               ; preds = %22
  %26 = call i32 (ptr, ...) @printf(ptr noundef @.str.318, ptr noundef @.str.183, i32 noundef 1382)
  store i32 11, ptr %1, align 4
  store i32 1, ptr %3, align 4
  br label %63

27:                                               ; preds = %22
  %28 = load i64, ptr %2, align 8, !tbaa !37
  %29 = icmp eq i64 %28, 444
  br i1 %29, label %32, label %30

30:                                               ; preds = %27
  %31 = call i32 (ptr, ...) @printf(ptr noundef @.str.318, ptr noundef @.str.183, i32 noundef 1383)
  store i32 12, ptr %1, align 4
  store i32 1, ptr %3, align 4
  br label %63

32:                                               ; preds = %27
  %33 = load ptr, ptr %4, align 8, !tbaa !80
  call void @Py_DECREF(ptr noundef %33)
  %34 = call ptr @PyLong_FromLong(i64 noundef 555)
  store ptr %34, ptr %5, align 8, !tbaa !80
  %35 = load ptr, ptr %5, align 8, !tbaa !80
  %36 = icmp eq ptr %35, null
  br i1 %36, label %37, label %38

37:                                               ; preds = %32
  br label %62

38:                                               ; preds = %32
  %39 = load ptr, ptr %5, align 8, !tbaa !80
  %40 = call i32 @PySys_AuditTuple(ptr noundef @.str.310, ptr noundef %39)
  %41 = icmp eq i32 %40, -1
  br i1 %41, label %44, label %42

42:                                               ; preds = %38
  %43 = call i32 (ptr, ...) @printf(ptr noundef @.str.318, ptr noundef @.str.183, i32 noundef 1391)
  store i32 20, ptr %1, align 4
  store i32 1, ptr %3, align 4
  br label %63

44:                                               ; preds = %38
  %45 = load ptr, ptr @PyExc_TypeError, align 8, !tbaa !80
  %46 = call i32 @PyErr_ExceptionMatches(ptr noundef %45)
  %47 = icmp ne i32 %46, 0
  br i1 %47, label %50, label %48

48:                                               ; preds = %44
  %49 = call i32 (ptr, ...) @printf(ptr noundef @.str.318, ptr noundef @.str.183, i32 noundef 1392)
  store i32 21, ptr %1, align 4
  store i32 1, ptr %3, align 4
  br label %63

50:                                               ; preds = %44
  call void @PyErr_Clear()
  %51 = load ptr, ptr %5, align 8, !tbaa !80
  call void @Py_DECREF(ptr noundef %51)
  %52 = call i32 @PySys_AuditTuple(ptr noundef @.str.320, ptr noundef null)
  %53 = icmp eq i32 %52, 0
  br i1 %53, label %56, label %54

54:                                               ; preds = %50
  %55 = call i32 (ptr, ...) @printf(ptr noundef @.str.318, ptr noundef @.str.183, i32 noundef 1397)
  store i32 30, ptr %1, align 4
  store i32 1, ptr %3, align 4
  br label %63

56:                                               ; preds = %50
  %57 = call ptr @PyErr_Occurred()
  %58 = icmp ne ptr %57, null
  br i1 %58, label %59, label %61

59:                                               ; preds = %56
  %60 = call i32 (ptr, ...) @printf(ptr noundef @.str.318, ptr noundef @.str.183, i32 noundef 1398)
  store i32 31, ptr %1, align 4
  store i32 1, ptr %3, align 4
  br label %63

61:                                               ; preds = %56
  call void @Py_Finalize()
  store i32 0, ptr %1, align 4
  store i32 1, ptr %3, align 4
  br label %63

62:                                               ; preds = %37, %15
  call void @PyErr_Print()
  store i32 1, ptr %1, align 4
  store i32 1, ptr %3, align 4
  br label %63

63:                                               ; preds = %62, %61, %59, %54, %48, %42, %30, %25, %20
  call void @llvm.lifetime.end.p0(i64 8, ptr %4) #11
  br label %64

64:                                               ; preds = %63, %9
  call void @llvm.lifetime.end.p0(i64 8, ptr %2) #11
  %65 = load i32, ptr %1, align 4
  ret i32 %65
}