; Function Attrs: nounwind uwtable
define internal range(i32 0, 32) i32 @test_audit_tuple() #0 {
  %1 = alloca i64, align 8
  call void @llvm.lifetime.start.p0(i64 8, ptr nonnull %1) #20
  store i64 0, ptr %1, align 8, !tbaa !78
  %2 = call i32 @PySys_AddAuditHook(ptr noundef nonnull @_audit_hook, ptr noundef nonnull %1) #20
  call fastcc void @_testembed_Py_InitializeFromConfig()
  %3 = call ptr @PyErr_Occurred() #20
  %.not = icmp eq ptr %3, null
  br i1 %.not, label %6, label %4

4:                                                ; preds = %0
  %5 = call i32 (ptr, ...) @printf(ptr noundef nonnull dereferenceable(1) @.str.318, ptr noundef nonnull @.str.183, i32 noundef 1374)
  br label %57

6:                                                ; preds = %0
  %7 = call ptr (ptr, ...) @Py_BuildValue(ptr noundef nonnull @.str.319, i32 noundef 444) #20
  %8 = icmp eq ptr %7, null
  br i1 %8, label %56, label %9

9:                                                ; preds = %6
  %10 = call i32 @PySys_AuditTuple(ptr noundef nonnull @.str.310, ptr noundef nonnull %7) #20
  %11 = icmp eq i32 %10, 0
  br i1 %11, label %14, label %12

12:                                               ; preds = %9
  %13 = call i32 (ptr, ...) @printf(ptr noundef nonnull dereferenceable(1) @.str.318, ptr noundef nonnull @.str.183, i32 noundef 1381)
  br label %57

14:                                               ; preds = %9
  %15 = call ptr @PyErr_Occurred() #20
  %.not8 = icmp eq ptr %15, null
  br i1 %.not8, label %18, label %16

16:                                               ; preds = %14
  %17 = call i32 (ptr, ...) @printf(ptr noundef nonnull dereferenceable(1) @.str.318, ptr noundef nonnull @.str.183, i32 noundef 1382)
  br label %57

18:                                               ; preds = %14
  %19 = load i64, ptr %1, align 8, !tbaa !78
  %20 = icmp eq i64 %19, 444
  br i1 %20, label %23, label %21

21:                                               ; preds = %18
  %22 = call i32 (ptr, ...) @printf(ptr noundef nonnull dereferenceable(1) @.str.318, ptr noundef nonnull @.str.183, i32 noundef 1383)
  br label %57

23:                                               ; preds = %18
  %24 = load i32, ptr %7, align 8, !tbaa !83
  %.not.i = icmp sgt i32 %24, -1
  br i1 %.not.i, label %25, label %Py_DECREF.exit

25:                                               ; preds = %23
  %26 = add nsw i32 %24, -1
  store i32 %26, ptr %7, align 8, !tbaa !83
  %27 = icmp eq i32 %26, 0
  br i1 %27, label %28, label %Py_DECREF.exit

28:                                               ; preds = %25
  call void @_Py_Dealloc(ptr noundef nonnull %7) #20
  br label %Py_DECREF.exit

Py_DECREF.exit:                                   ; preds = %23, %25, %28
  %29 = call ptr @PyLong_FromLong(i64 noundef 555) #20
  %30 = icmp eq ptr %29, null
  br i1 %30, label %56, label %31

31:                                               ; preds = %Py_DECREF.exit
  %32 = call i32 @PySys_AuditTuple(ptr noundef nonnull @.str.310, ptr noundef nonnull %29) #20
  %33 = icmp eq i32 %32, -1
  br i1 %33, label %36, label %34

34:                                               ; preds = %31
  %35 = call i32 (ptr, ...) @printf(ptr noundef nonnull dereferenceable(1) @.str.318, ptr noundef nonnull @.str.183, i32 noundef 1391)
  br label %57

36:                                               ; preds = %31
  %37 = load ptr, ptr @PyExc_TypeError, align 8, !tbaa !84
  %38 = call i32 @PyErr_ExceptionMatches(ptr noundef %37) #20
  %.not9 = icmp eq i32 %38, 0
  br i1 %.not9, label %39, label %41

39:                                               ; preds = %36
  %40 = call i32 (ptr, ...) @printf(ptr noundef nonnull dereferenceable(1) @.str.318, ptr noundef nonnull @.str.183, i32 noundef 1392)
  br label %57

41:                                               ; preds = %36
  call void @PyErr_Clear() #20
  %42 = load i32, ptr %29, align 8, !tbaa !83
  %.not.i11 = icmp sgt i32 %42, -1
  br i1 %.not.i11, label %43, label %Py_DECREF.exit12

43:                                               ; preds = %41
  %44 = add nsw i32 %42, -1
  store i32 %44, ptr %29, align 8, !tbaa !83
  %45 = icmp eq i32 %44, 0
  br i1 %45, label %46, label %Py_DECREF.exit12

46:                                               ; preds = %43
  call void @_Py_Dealloc(ptr noundef nonnull %29) #20
  br label %Py_DECREF.exit12

Py_DECREF.exit12:                                 ; preds = %41, %43, %46
  %47 = call i32 @PySys_AuditTuple(ptr noundef nonnull @.str.320, ptr noundef null) #20
  %48 = icmp eq i32 %47, 0
  br i1 %48, label %51, label %49

49:                                               ; preds = %Py_DECREF.exit12
  %50 = call i32 (ptr, ...) @printf(ptr noundef nonnull dereferenceable(1) @.str.318, ptr noundef nonnull @.str.183, i32 noundef 1397)
  br label %57

51:                                               ; preds = %Py_DECREF.exit12
  %52 = call ptr @PyErr_Occurred() #20
  %.not10 = icmp eq ptr %52, null
  br i1 %.not10, label %55, label %53

53:                                               ; preds = %51
  %54 = call i32 (ptr, ...) @printf(ptr noundef nonnull dereferenceable(1) @.str.318, ptr noundef nonnull @.str.183, i32 noundef 1398)
  br label %57

55:                                               ; preds = %51
  call void @Py_Finalize() #20
  br label %57

56:                                               ; preds = %Py_DECREF.exit, %6
  call void @PyErr_Print() #20
  br label %57

57:                                               ; preds = %12, %16, %21, %34, %39, %49, %53, %55, %56, %4
  %.0 = phi i32 [ 0, %4 ], [ 1, %56 ], [ 11, %16 ], [ 31, %53 ], [ 0, %55 ], [ 30, %49 ], [ 21, %39 ], [ 20, %34 ], [ 12, %21 ], [ 10, %12 ]
  call void @llvm.lifetime.end.p0(i64 8, ptr nonnull %1) #20
  ret i32 %.0
}